target datalayout = "e-m:e-p270:32:32-p271:32:32-p272:64:64-i64:64-i128:128-f80:128-n8:16:32:64-S128"
target triple = "x86_64-pc-linux-gnu"

%struct.zlib_writer = type { %struct.Curl_cwriter, i32, [16384 x i8], i32, %struct.z_stream_s }
%struct.Curl_cwriter = type { ptr, ptr, ptr, i32 }
%struct.z_stream_s = type { ptr, i32, i64, ptr, i32, i64, ptr, ptr, ptr, ptr, ptr, i32, i64, i64 }

@.str.12 = private unnamed_addr constant [7 x i8] c"1.2.11\00", align 1
@.str.13 = private unnamed_addr constant [46 x i8] c"Error while processing content unencoding: %s\00", align 1
@.str.14 = private unnamed_addr constant [90 x i8] c"Error while processing content unencoding: Unknown failure within decompression software.\00", align 1

; Function Attrs: nounwind uwtable
define internal i32 @process_zlib_error(ptr noundef %0, ptr noundef %1) #0 {
  %3 = alloca ptr, align 8
  %4 = alloca ptr, align 8
  store ptr %0, ptr %3, align 8, !tbaa !20
  store ptr %1, ptr %4, align 8, !tbaa !105
  %5 = load ptr, ptr %4, align 8, !tbaa !105
  %6 = getelementptr inbounds nuw %struct.z_stream_s, ptr %5, i32 0, i32 6
  %7 = load ptr, ptr %6, align 8, !tbaa !118
  %8 = icmp ne ptr %7, null
  br i1 %8, label %9, label %14

9:                                                ; preds = %2
  %10 = load ptr, ptr %3, align 8, !tbaa !20
  %11 = load ptr, ptr %4, align 8, !tbaa !105
  %12 = getelementptr inbounds nuw %struct.z_stream_s, ptr %11, i32 0, i32 6
  %13 = load ptr, ptr %12, align 8, !tbaa !118
  call void (ptr, ptr, ...) @Curl_failf(ptr noundef %10, ptr noundef @.str.13, ptr noundef %13)
  br label %16

14:                                               ; preds = %2
  %15 = load ptr, ptr %3, align 8, !tbaa !20
  call void (ptr, ptr, ...) @Curl_failf(ptr noundef %15, ptr noundef @.str.14)
  br label %16

16:                                               ; preds = %14, %9
  ret i32 61
}

; Function Attrs: nounwind uwtable
define internal i32 @exit_zlib(ptr noundef %0, ptr noundef %1, ptr noundef %2, i32 noundef %3) #0 {
  %5 = alloca ptr, align 8
  %6 = alloca ptr, align 8
  %7 = alloca ptr, align 8
  %8 = alloca i32, align 4
  store ptr %0, ptr %5, align 8, !tbaa !20
  store ptr %1, ptr %6, align 8, !tbaa !105
  store ptr %2, ptr %7, align 8, !tbaa !117
  store i32 %3, ptr %8, align 4, !tbaa !22
  %9 = load ptr, ptr %7, align 8, !tbaa !117
  %10 = load i32, ptr %9, align 4, !tbaa !22
  %11 = icmp ne i32 %10, 0
  br i1 %11, label %12, label %25

12:                                               ; preds = %4
  %13 = load ptr, ptr %6, align 8, !tbaa !105
  %14 = call i32 @inflateEnd(ptr noundef %13)
  %15 = icmp ne i32 %14, 0
  br i1 %15, label %16, label %23

16:                                               ; preds = %12
  %17 = load i32, ptr %8, align 4, !tbaa !22
  %18 = icmp eq i32 %17, 0
  br i1 %18, label %19, label %23

19:                                               ; preds = %16
  %20 = load ptr, ptr %5, align 8, !tbaa !20
  %21 = load ptr, ptr %6, align 8, !tbaa !105
  %22 = call i32 @process_zlib_error(ptr noundef %20, ptr noundef %21)
  store i32 %22, ptr %8, align 4, !tbaa !22
  br label %23

23:                                               ; preds = %19, %16, %12
  %24 = load ptr, ptr %7, align 8, !tbaa !117
  store i32 0, ptr %24, align 4, !tbaa !22
  br label %25

25:                                               ; preds = %23, %4
  %26 = load i32, ptr %8, align 4, !tbaa !22
  ret i32 %26
}

; Function Attrs: nounwind uwtable
define internal i32 @inflate_stream(ptr noundef %0, ptr noundef %1, i32 noundef %2, i32 noundef %3) #0 {
  %5 = alloca i32, align 4
  %6 = alloca ptr, align 8
  %7 = alloca ptr, align 8
  %8 = alloca i32, align 4
  %9 = alloca i32, align 4
  %10 = alloca ptr, align 8
  %11 = alloca ptr, align 8
  %12 = alloca i32, align 4
  %13 = alloca ptr, align 8
  %14 = alloca i8, align 1
  %15 = alloca i32, align 4
  %16 = alloca i32, align 4
  %17 = alloca i32, align 4
  store ptr %0, ptr %6, align 8, !tbaa !20
  store ptr %1, ptr %7, align 8, !tbaa !98
  store i32 %2, ptr %8, align 4, !tbaa !22
  store i32 %3, ptr %9, align 4, !tbaa !22
  call void @llvm.lifetime.start.p0(i64 8, ptr %10) #5
  %18 = load ptr, ptr %7, align 8, !tbaa !98
  store ptr %18, ptr %10, align 8, !tbaa !103
  call void @llvm.lifetime.start.p0(i64 8, ptr %11) #5
  %19 = load ptr, ptr %10, align 8, !tbaa !103
  %20 = getelementptr inbounds nuw %struct.zlib_writer, ptr %19, i32 0, i32 4
  store ptr %20, ptr %11, align 8, !tbaa !105
  call void @llvm.lifetime.start.p0(i64 4, ptr %12) #5
  %21 = load ptr, ptr %11, align 8, !tbaa !105
  %22 = getelementptr inbounds nuw %struct.z_stream_s, ptr %21, i32 0, i32 1
  %23 = load i32, ptr %22, align 8, !tbaa !116
  store i32 %23, ptr %12, align 4, !tbaa !22
  call void @llvm.lifetime.start.p0(i64 8, ptr %13) #5
  %24 = load ptr, ptr %11, align 8, !tbaa !105
  %25 = getelementptr inbounds nuw %struct.z_stream_s, ptr %24, i32 0, i32 0
  %26 = load ptr, ptr %25, align 8, !tbaa !115
  store ptr %26, ptr %13, align 8, !tbaa !3
  call void @llvm.lifetime.start.p0(i64 1, ptr %14) #5
  store i8 0, ptr %14, align 1, !tbaa !24
  call void @llvm.lifetime.start.p0(i64 4, ptr %15) #5
  store i32 0, ptr %15, align 4, !tbaa !22
  %27 = load ptr, ptr %10, align 8, !tbaa !103
  %28 = getelementptr inbounds nuw %struct.zlib_writer, ptr %27, i32 0, i32 1
  %29 = load i32, ptr %28, align 8, !tbaa !111
  %30 = icmp ne i32 %29, 1
  br i1 %30, label %31, label %47

31:                                               ; preds = %4
  %32 = load ptr, ptr %10, align 8, !tbaa !103
  %33 = getelementptr inbounds nuw %struct.zlib_writer, ptr %32, i32 0, i32 1
  %34 = load i32, ptr %33, align 8, !tbaa !111
  %35 = icmp ne i32 %34, 2
  br i1 %35, label %36, label %47

36:                                               ; preds = %31
  %37 = load ptr, ptr %10, align 8, !tbaa !103
  %38 = getelementptr inbounds nuw %struct.zlib_writer, ptr %37, i32 0, i32 1
  %39 = load i32, ptr %38, align 8, !tbaa !111
  %40 = icmp ne i32 %39, 4
  br i1 %40, label %41, label %47

41:                                               ; preds = %36
  %42 = load ptr, ptr %6, align 8, !tbaa !20
  %43 = load ptr, ptr %11, align 8, !tbaa !105
  %44 = load ptr, ptr %10, align 8, !tbaa !103
  %45 = getelementptr inbounds nuw %struct.zlib_writer, ptr %44, i32 0, i32 1
  %46 = call i32 @exit_zlib(ptr noundef %42, ptr noundef %43, ptr noundef %45, i32 noundef 23)
  store i32 %46, ptr %5, align 4
  store i32 1, ptr %16, align 4
  br label %169

47:                                               ; preds = %36, %31, %4
  br label %48

48:                                               ; preds = %154, %47
  %49 = load i8, ptr %14, align 1, !tbaa !24, !range !96, !noundef !97
  %50 = trunc i8 %49 to i1
  %51 = xor i1 %50, true
  br i1 %51, label %52, label %155

52:                                               ; preds = %48
  call void @llvm.lifetime.start.p0(i64 4, ptr %17) #5
  store i8 1, ptr %14, align 1, !tbaa !24
  %53 = load ptr, ptr %10, align 8, !tbaa !103
  %54 = getelementptr inbounds nuw %struct.zlib_writer, ptr %53, i32 0, i32 2
  %55 = getelementptr inbounds [16384 x i8], ptr %54, i64 0, i64 0
  %56 = load ptr, ptr %11, align 8, !tbaa !105
  %57 = getelementptr inbounds nuw %struct.z_stream_s, ptr %56, i32 0, i32 3
  store ptr %55, ptr %57, align 8, !tbaa !120
  %58 = load ptr, ptr %11, align 8, !tbaa !105
  %59 = getelementptr inbounds nuw %struct.z_stream_s, ptr %58, i32 0, i32 4
  store i32 16384, ptr %59, align 8, !tbaa !121
  %60 = load ptr, ptr %11, align 8, !tbaa !105
  %61 = call i32 @inflate(ptr noundef %60, i32 noundef 5)
  store i32 %61, ptr %17, align 4, !tbaa !22
  %62 = load ptr, ptr %11, align 8, !tbaa !105
  %63 = getelementptr inbounds nuw %struct.z_stream_s, ptr %62, i32 0, i32 4
  %64 = load i32, ptr %63, align 8, !tbaa !121
  %65 = icmp ne i32 %64, 16384
  br i1 %65, label %66, label %101

66:                                               ; preds = %52
  %67 = load i32, ptr %17, align 4, !tbaa !22
  %68 = icmp eq i32 %67, 0
  br i1 %68, label %72, label %69

69:                                               ; preds = %66
  %70 = load i32, ptr %17, align 4, !tbaa !22
  %71 = icmp eq i32 %70, 1
  br i1 %71, label %72, label %100

72:                                               ; preds = %69, %66
  %73 = load i32, ptr %9, align 4, !tbaa !22
  %74 = load ptr, ptr %10, align 8, !tbaa !103
  %75 = getelementptr inbounds nuw %struct.zlib_writer, ptr %74, i32 0, i32 1
  store i32 %73, ptr %75, align 8, !tbaa !111
  %76 = load ptr, ptr %6, align 8, !tbaa !20
  %77 = load ptr, ptr %7, align 8, !tbaa !98
  %78 = getelementptr inbounds nuw %struct.Curl_cwriter, ptr %77, i32 0, i32 1
  %79 = load ptr, ptr %78, align 8, !tbaa !114
  %80 = load i32, ptr %8, align 4, !tbaa !22
  %81 = load ptr, ptr %10, align 8, !tbaa !103
  %82 = getelementptr inbounds nuw %struct.zlib_writer, ptr %81, i32 0, i32 2
  %83 = getelementptr inbounds [16384 x i8], ptr %82, i64 0, i64 0
  %84 = load ptr, ptr %11, align 8, !tbaa !105
  %85 = getelementptr inbounds nuw %struct.z_stream_s, ptr %84, i32 0, i32 4
  %86 = load i32, ptr %85, align 8, !tbaa !121
  %87 = sub i32 16384, %86
  %88 = zext i32 %87 to i64
  %89 = call i32 @Curl_cwriter_write(ptr noundef %76, ptr noundef %79, i32 noundef %80, ptr noundef %83, i64 noundef %88)
  store i32 %89, ptr %15, align 4, !tbaa !22
  %90 = load i32, ptr %15, align 4, !tbaa !22
  %91 = icmp ne i32 %90, 0
  br i1 %91, label %92, label %99

92:                                               ; preds = %72
  %93 = load ptr, ptr %6, align 8, !tbaa !20
  %94 = load ptr, ptr %11, align 8, !tbaa !105
  %95 = load ptr, ptr %10, align 8, !tbaa !103
  %96 = getelementptr inbounds nuw %struct.zlib_writer, ptr %95, i32 0, i32 1
  %97 = load i32, ptr %15, align 4, !tbaa !22
  %98 = call i32 @exit_zlib(ptr noundef %93, ptr noundef %94, ptr noundef %96, i32 noundef %97)
  store i32 3, ptr %16, align 4
  br label %152

99:                                               ; preds = %72
  br label %100

100:                                              ; preds = %99, %69
  br label %101

101:                                              ; preds = %100, %52
  %102 = load i32, ptr %17, align 4, !tbaa !22
  switch i32 %102, label %142 [
    i32 0, label %103
    i32 -5, label %151
    i32 1, label %104
    i32 -3, label %108
  ]

103:                                              ; preds = %101
  store i8 0, ptr %14, align 1, !tbaa !24
  br label %151

104:                                              ; preds = %101
  %105 = load ptr, ptr %6, align 8, !tbaa !20
  %106 = load ptr, ptr %10, align 8, !tbaa !103
  %107 = call i32 @process_trailer(ptr noundef %105, ptr noundef %106)
  store i32 %107, ptr %15, align 4, !tbaa !22
  br label %151

108:                                              ; preds = %101
  %109 = load ptr, ptr %10, align 8, !tbaa !103
  %110 = getelementptr inbounds nuw %struct.zlib_writer, ptr %109, i32 0, i32 1
  %111 = load i32, ptr %110, align 8, !tbaa !111
  %112 = icmp eq i32 %111, 1
  br i1 %112, label %113, label %133

113:                                              ; preds = %108
  %114 = load ptr, ptr %11, align 8, !tbaa !105
  %115 = call i32 @inflateEnd(ptr noundef %114)
  %116 = load ptr, ptr %11, align 8, !tbaa !105
  %117 = call i32 @inflateInit2_(ptr noundef %116, i32 noundef -15, ptr noundef @.str.12, i32 noundef 112)
  %118 = icmp eq i32 %117, 0
  br i1 %118, label %119, label %130

119:                                              ; preds = %113
  %120 = load ptr, ptr %13, align 8, !tbaa !3
  %121 = load ptr, ptr %11, align 8, !tbaa !105
  %122 = getelementptr inbounds nuw %struct.z_stream_s, ptr %121, i32 0, i32 0
  store ptr %120, ptr %122, align 8, !tbaa !115
  %123 = load i32, ptr %12, align 4, !tbaa !22
  %124 = load ptr, ptr %11, align 8, !tbaa !105
  %125 = getelementptr inbounds nuw %struct.z_stream_s, ptr %124, i32 0, i32 1
  store i32 %123, ptr %125, align 8, !tbaa !116
  %126 = load ptr, ptr %10, align 8, !tbaa !103
  %127 = getelementptr inbounds nuw %struct.zlib_writer, ptr %126, i32 0, i32 1
  store i32 2, ptr %127, align 8, !tbaa !111
  %128 = load ptr, ptr %10, align 8, !tbaa !103
  %129 = getelementptr inbounds nuw %struct.zlib_writer, ptr %128, i32 0, i32 3
  store i32 4, ptr %129, align 4, !tbaa !119
  store i8 0, ptr %14, align 1, !tbaa !24
  br label %151

130:                                              ; preds = %113
  %131 = load ptr, ptr %10, align 8, !tbaa !103
  %132 = getelementptr inbounds nuw %struct.zlib_writer, ptr %131, i32 0, i32 1
  store i32 0, ptr %132, align 8, !tbaa !111
  br label %133

133:                                              ; preds = %130, %108
  %134 = load ptr, ptr %6, align 8, !tbaa !20
  %135 = load ptr, ptr %11, align 8, !tbaa !105
  %136 = load ptr, ptr %10, align 8, !tbaa !103
  %137 = getelementptr inbounds nuw %struct.zlib_writer, ptr %136, i32 0, i32 1
  %138 = load ptr, ptr %6, align 8, !tbaa !20
  %139 = load ptr, ptr %11, align 8, !tbaa !105
  %140 = call i32 @process_zlib_error(ptr noundef %138, ptr noundef %139)
  %141 = call i32 @exit_zlib(ptr noundef %134, ptr noundef %135, ptr noundef %137, i32 noundef %140)
  store i32 %141, ptr %15, align 4, !tbaa !22
  br label %151

142:                                              ; preds = %101
  %143 = load ptr, ptr %6, align 8, !tbaa !20
  %144 = load ptr, ptr %11, align 8, !tbaa !105
  %145 = load ptr, ptr %10, align 8, !tbaa !103
  %146 = getelementptr inbounds nuw %struct.zlib_writer, ptr %145, i32 0, i32 1
  %147 = load ptr, ptr %6, align 8, !tbaa !20
  %148 = load ptr, ptr %11, align 8, !tbaa !105
  %149 = call i32 @process_zlib_error(ptr noundef %147, ptr noundef %148)
  %150 = call i32 @exit_zlib(ptr noundef %143, ptr noundef %144, ptr noundef %146, i32 noundef %149)
  store i32 %150, ptr %15, align 4, !tbaa !22
  br label %151

151:                                              ; preds = %142, %133, %119, %104, %101, %103
  store i32 0, ptr %16, align 4
  br label %152

152:                                              ; preds = %151, %92
  call void @llvm.lifetime.end.p0(i64 4, ptr %17) #5
  %153 = load i32, ptr %16, align 4
  switch i32 %153, label %171 [
    i32 0, label %154
    i32 3, label %155
  ]

154:                                              ; preds = %152
  br label %48, !llvm.loop !122

155:                                              ; preds = %152, %48
  %156 = load i32, ptr %12, align 4, !tbaa !22
  %157 = icmp ne i32 %156, 0
  br i1 %157, label %158, label %167

158:                                              ; preds = %155
  %159 = load ptr, ptr %10, align 8, !tbaa !103
  %160 = getelementptr inbounds nuw %struct.zlib_writer, ptr %159, i32 0, i32 1
  %161 = load i32, ptr %160, align 8, !tbaa !111
  %162 = icmp eq i32 %161, 1
  br i1 %162, label %163, label %167

163:                                              ; preds = %158
  %164 = load i32, ptr %9, align 4, !tbaa !22
  %165 = load ptr, ptr %10, align 8, !tbaa !103
  %166 = getelementptr inbounds nuw %struct.zlib_writer, ptr %165, i32 0, i32 1
  store i32 %164, ptr %166, align 8, !tbaa !111
  br label %167

167:                                              ; preds = %163, %158, %155
  %168 = load i32, ptr %15, align 4, !tbaa !22
  store i32 %168, ptr %5, align 4
  store i32 1, ptr %16, align 4
  br label %169

169:                                              ; preds = %167, %41
  call void @llvm.lifetime.end.p0(i64 4, ptr %15) #5
  call void @llvm.lifetime.end.p0(i64 1, ptr %14) #5
  call void @llvm.lifetime.end.p0(i64 8, ptr %13) #5
  call void @llvm.lifetime.end.p0(i64 4, ptr %12) #5
  call void @llvm.lifetime.end.p0(i64 8, ptr %11) #5
  call void @llvm.lifetime.end.p0(i64 8, ptr %10) #5
  %170 = load i32, ptr %5, align 4
  ret i32 %170

171:                                              ; preds = %152
  unreachable
}