; Function Attrs: nounwind uwtable
define internal fastcc i32 @inflate_stream(ptr noundef %0, ptr noundef %1, i32 noundef %2, i32 noundef range(i32 2, 5) %3) unnamed_addr #0 {
  %5 = getelementptr inbounds nuw i8, ptr %1, i64 16424
  %6 = getelementptr inbounds nuw i8, ptr %1, i64 16432
  %7 = load i32, ptr %6, align 8, !tbaa !100
  %8 = load ptr, ptr %5, align 8, !tbaa !99
  %9 = getelementptr inbounds nuw i8, ptr %1, i64 32
  %10 = load i32, ptr %9, align 8, !tbaa !95
  switch i32 %10, label %11 [
    i32 1, label %13
    i32 2, label %13
    i32 4, label %13
    i32 0, label %exit_zlib.exit
  ]

11:                                               ; preds = %4
  %12 = tail call i32 @inflateEnd(ptr noundef nonnull %5) #8
  store i32 0, ptr %9, align 4, !tbaa !101
  br label %exit_zlib.exit

13:                                               ; preds = %4, %4, %4
  %14 = getelementptr inbounds nuw i8, ptr %1, i64 36
  %15 = getelementptr inbounds nuw i8, ptr %1, i64 16448
  %16 = getelementptr inbounds nuw i8, ptr %1, i64 16456
  %17 = getelementptr inbounds nuw i8, ptr %1, i64 8
  %18 = getelementptr i8, ptr %1, i64 16472
  %19 = getelementptr inbounds nuw i8, ptr %1, i64 16420
  br label %exit_zlib.exit77

exit_zlib.exit77:                                 ; preds = %exit_zlib.exit77.backedge, %13
  store ptr %14, ptr %15, align 8, !tbaa !104
  store i32 16384, ptr %16, align 8, !tbaa !105
  %20 = tail call i32 @inflate(ptr noundef nonnull %5, i32 noundef 5) #8
  %21 = load i32, ptr %16, align 8, !tbaa !105
  %.not70 = icmp ne i32 %21, 16384
  %or.cond = icmp ult i32 %20, 2
  %or.cond73 = select i1 %.not70, i1 %or.cond, i1 false
  br i1 %or.cond73, label %22, label %30

22:                                               ; preds = %exit_zlib.exit77
  store i32 %3, ptr %9, align 8, !tbaa !95
  %23 = load ptr, ptr %17, align 8, !tbaa !98
  %24 = sub i32 16384, %21
  %25 = zext i32 %24 to i64
  %26 = tail call i32 @Curl_cwriter_write(ptr noundef %0, ptr noundef %23, i32 noundef %2, ptr noundef nonnull %14, i64 noundef %25) #8
  %.not71 = icmp eq i32 %26, 0
  br i1 %.not71, label %30, label %27

27:                                               ; preds = %22
  %28 = load i32, ptr %9, align 4, !tbaa !101
  %.not.i75 = icmp eq i32 %28, 0
  br i1 %.not.i75, label %exit_zlib.exit77.thread, label %process_zlib_error.exit.i

process_zlib_error.exit.i:                        ; preds = %27
  %29 = tail call i32 @inflateEnd(ptr noundef nonnull %5) #8
  store i32 0, ptr %9, align 4, !tbaa !101
  br label %exit_zlib.exit77.thread

30:                                               ; preds = %22, %exit_zlib.exit77
  switch i32 %20, label %47 [
    i32 0, label %exit_zlib.exit77.backedge
    i32 -5, label %exit_zlib.exit77.thread
    i32 1, label %31
    i32 -3, label %33
  ]

exit_zlib.exit77.backedge:                        ; preds = %30, %40
  br label %exit_zlib.exit77

31:                                               ; preds = %30
  %32 = tail call fastcc i32 @process_trailer(ptr noundef %0, ptr noundef nonnull %1)
  br label %exit_zlib.exit77.thread

33:                                               ; preds = %30
  %34 = load i32, ptr %9, align 8, !tbaa !95
  %35 = icmp eq i32 %34, 1
  br i1 %35, label %36, label %.loopexit

36:                                               ; preds = %33
  %37 = tail call i32 @inflateEnd(ptr noundef nonnull %5) #8
  %38 = tail call i32 @inflateInit2_(ptr noundef nonnull %5, i32 noundef -15, ptr noundef nonnull @.str.12, i32 noundef 112) #8
  %39 = icmp eq i32 %38, 0
  br i1 %39, label %40, label %41

40:                                               ; preds = %36
  store ptr %8, ptr %5, align 8, !tbaa !99
  store i32 %7, ptr %6, align 8, !tbaa !100
  store i32 2, ptr %9, align 8, !tbaa !95
  store i32 4, ptr %19, align 4, !tbaa !103
  br label %exit_zlib.exit77.backedge

41:                                               ; preds = %36
  store i32 0, ptr %9, align 8, !tbaa !95
  br label %.loopexit

.loopexit:                                        ; preds = %33, %41
  %.val74 = load ptr, ptr %18, align 8, !tbaa !94
  %.not.i78 = icmp eq ptr %.val74, null
  br i1 %.not.i78, label %43, label %42

42:                                               ; preds = %.loopexit
  tail call void (ptr, ptr, ...) @Curl_failf(ptr noundef %0, ptr noundef nonnull @.str.13, ptr noundef nonnull %.val74) #8
  br label %process_zlib_error.exit

43:                                               ; preds = %.loopexit
  tail call void (ptr, ptr, ...) @Curl_failf(ptr noundef %0, ptr noundef nonnull @.str.14) #8
  br label %process_zlib_error.exit

process_zlib_error.exit:                          ; preds = %42, %43
  %44 = load i32, ptr %9, align 4, !tbaa !101
  %.not.i79 = icmp eq i32 %44, 0
  br i1 %.not.i79, label %exit_zlib.exit77.thread, label %45

45:                                               ; preds = %process_zlib_error.exit
  %46 = tail call i32 @inflateEnd(ptr noundef nonnull %5) #8
  store i32 0, ptr %9, align 4, !tbaa !101
  br label %exit_zlib.exit77.thread

47:                                               ; preds = %30
  %.val = load ptr, ptr %18, align 8, !tbaa !94
  %.not.i87 = icmp eq ptr %.val, null
  br i1 %.not.i87, label %49, label %48

48:                                               ; preds = %47
  tail call void (ptr, ptr, ...) @Curl_failf(ptr noundef %0, ptr noundef nonnull @.str.13, ptr noundef nonnull %.val) #8
  br label %process_zlib_error.exit88

49:                                               ; preds = %47
  tail call void (ptr, ptr, ...) @Curl_failf(ptr noundef %0, ptr noundef nonnull @.str.14) #8
  br label %process_zlib_error.exit88

process_zlib_error.exit88:                        ; preds = %48, %49
  %50 = load i32, ptr %9, align 4, !tbaa !101
  %.not.i89 = icmp eq i32 %50, 0
  br i1 %.not.i89, label %exit_zlib.exit77.thread, label %51

51:                                               ; preds = %process_zlib_error.exit88
  %52 = tail call i32 @inflateEnd(ptr noundef nonnull %5) #8
  store i32 0, ptr %9, align 4, !tbaa !101
  br label %exit_zlib.exit77.thread

exit_zlib.exit77.thread:                          ; preds = %30, %51, %process_zlib_error.exit88, %45, %process_zlib_error.exit, %31, %process_zlib_error.exit.i, %27
  %.1 = phi i32 [ %26, %27 ], [ %26, %process_zlib_error.exit.i ], [ 61, %51 ], [ 61, %process_zlib_error.exit88 ], [ 61, %45 ], [ 61, %process_zlib_error.exit ], [ %32, %31 ], [ 0, %30 ]
  %.not72 = icmp eq i32 %7, 0
  br i1 %.not72, label %exit_zlib.exit, label %53

53:                                               ; preds = %exit_zlib.exit77.thread
  %54 = load i32, ptr %9, align 8, !tbaa !95
  %55 = icmp eq i32 %54, 1
  br i1 %55, label %56, label %exit_zlib.exit

56:                                               ; preds = %53
  store i32 %3, ptr %9, align 8, !tbaa !95
  br label %exit_zlib.exit

exit_zlib.exit:                                   ; preds = %4, %11, %exit_zlib.exit77.thread, %53, %56
  %.0 = phi i32 [ %.1, %56 ], [ %.1, %53 ], [ %.1, %exit_zlib.exit77.thread ], [ 23, %11 ], [ 23, %4 ]
  ret i32 %.0
}